target datalayout = "e-m:e-p270:32:32-p271:32:32-p272:64:64-i64:64-i128:128-f80:128-n8:16:32:64-S128"
target triple = "x86_64-pc-linux-gnu"

; Function Attrs: alwaysinline nounwind willreturn memory(none) uwtable
define internal signext i16 @av_clip_int16_c(i32 noundef %0) #4 {
  %2 = alloca i16, align 2
  %3 = alloca i32, align 4
  store i32 %0, ptr %3, align 4, !tbaa !9
  %4 = load i32, ptr %3, align 4, !tbaa !9
  %5 = add i32 %4, 32768
  %6 = and i32 %5, -65536
  %7 = icmp ne i32 %6, 0
  br i1 %7, label %8, label %13

8:                                                ; preds = %1
  %9 = load i32, ptr %3, align 4, !tbaa !9
  %10 = ashr i32 %9, 31
  %11 = xor i32 %10, 32767
  %12 = trunc i32 %11 to i16
  store i16 %12, ptr %2, align 2
  br label %16

13:                                               ; preds = %1
  %14 = load i32, ptr %3, align 4, !tbaa !9
  %15 = trunc i32 %14 to i16
  store i16 %15, ptr %2, align 2
  br label %16

16:                                               ; preds = %13, %8
  %17 = load i16, ptr %2, align 2
  ret i16 %17
}

; Function Attrs: nounwind uwtable
define i32 @ff_celp_lp_synthesis_filter(ptr noundef %0, ptr noundef %1, ptr noundef %2, i32 noundef %3, i32 noundef %4, i32 noundef %5, i32 noundef %6, i32 noundef %7) #0 {
  %9 = alloca i32, align 4
  %10 = alloca ptr, align 8
  %11 = alloca ptr, align 8
  %12 = alloca ptr, align 8
  %13 = alloca i32, align 4
  %14 = alloca i32, align 4
  %15 = alloca i32, align 4
  %16 = alloca i32, align 4
  %17 = alloca i32, align 4
  %18 = alloca i32, align 4
  %19 = alloca i32, align 4
  %20 = alloca i32, align 4
  %21 = alloca i32, align 4
  %22 = alloca i32, align 4
  store ptr %0, ptr %10, align 8, !tbaa !4
  store ptr %1, ptr %11, align 8, !tbaa !4
  store ptr %2, ptr %12, align 8, !tbaa !4
  store i32 %3, ptr %13, align 4, !tbaa !9
  store i32 %4, ptr %14, align 4, !tbaa !9
  store i32 %5, ptr %15, align 4, !tbaa !9
  store i32 %6, ptr %16, align 4, !tbaa !9
  store i32 %7, ptr %17, align 4, !tbaa !9
  call void @llvm.lifetime.start.p0(i64 4, ptr %18) #5
  call void @llvm.lifetime.start.p0(i64 4, ptr %19) #5
  store i32 0, ptr %19, align 4, !tbaa !9
  br label %23

23:                                               ; preds = %87, %8
  %24 = load i32, ptr %19, align 4, !tbaa !9
  %25 = load i32, ptr %13, align 4, !tbaa !9
  %26 = icmp slt i32 %24, %25
  br i1 %26, label %27, label %90

27:                                               ; preds = %23
  call void @llvm.lifetime.start.p0(i64 4, ptr %20) #5
  %28 = load i32, ptr %17, align 4, !tbaa !9
  store i32 %28, ptr %20, align 4, !tbaa !9
  call void @llvm.lifetime.start.p0(i64 4, ptr %21) #5
  store i32 1, ptr %18, align 4, !tbaa !9
  br label %29

29:                                               ; preds = %52, %27
  %30 = load i32, ptr %18, align 4, !tbaa !9
  %31 = load i32, ptr %14, align 4, !tbaa !9
  %32 = icmp sle i32 %30, %31
  br i1 %32, label %33, label %55

33:                                               ; preds = %29
  %34 = load ptr, ptr %11, align 8, !tbaa !4
  %35 = load i32, ptr %18, align 4, !tbaa !9
  %36 = sub nsw i32 %35, 1
  %37 = sext i32 %36 to i64
  %38 = getelementptr inbounds i16, ptr %34, i64 %37
  %39 = load i16, ptr %38, align 2, !tbaa !11
  %40 = sext i16 %39 to i32
  %41 = load ptr, ptr %10, align 8, !tbaa !4
  %42 = load i32, ptr %19, align 4, !tbaa !9
  %43 = load i32, ptr %18, align 4, !tbaa !9
  %44 = sub nsw i32 %42, %43
  %45 = sext i32 %44 to i64
  %46 = getelementptr inbounds i16, ptr %41, i64 %45
  %47 = load i16, ptr %46, align 2, !tbaa !11
  %48 = sext i16 %47 to i32
  %49 = mul nsw i32 %40, %48
  %50 = load i32, ptr %20, align 4, !tbaa !9
  %51 = sub i32 %50, %49
  store i32 %51, ptr %20, align 4, !tbaa !9
  br label %52

52:                                               ; preds = %33
  %53 = load i32, ptr %18, align 4, !tbaa !9
  %54 = add nsw i32 %53, 1
  store i32 %54, ptr %18, align 4, !tbaa !9
  br label %29, !llvm.loop !23

55:                                               ; preds = %29
  %56 = load i32, ptr %20, align 4, !tbaa !9
  %57 = ashr i32 %56, 12
  %58 = load ptr, ptr %12, align 8, !tbaa !4
  %59 = load i32, ptr %19, align 4, !tbaa !9
  %60 = sext i32 %59 to i64
  %61 = getelementptr inbounds i16, ptr %58, i64 %60
  %62 = load i16, ptr %61, align 2, !tbaa !11
  %63 = sext i16 %62 to i32
  %64 = add nsw i32 %57, %63
  %65 = load i32, ptr %16, align 4, !tbaa !9
  %66 = ashr i32 %64, %65
  store i32 %66, ptr %21, align 4, !tbaa !9
  %67 = load i32, ptr %21, align 4, !tbaa !9
  %68 = call signext i16 @av_clip_int16_c(i32 noundef %67) #6
  %69 = sext i16 %68 to i32
  store i32 %69, ptr %20, align 4, !tbaa !9
  %70 = load i32, ptr %15, align 4, !tbaa !9
  %71 = icmp ne i32 %70, 0
  br i1 %71, label %72, label %77

72:                                               ; preds = %55
  %73 = load i32, ptr %20, align 4, !tbaa !9
  %74 = load i32, ptr %21, align 4, !tbaa !9
  %75 = icmp ne i32 %73, %74
  br i1 %75, label %76, label %77

76:                                               ; preds = %72
  store i32 1, ptr %9, align 4
  store i32 1, ptr %22, align 4
  br label %84

77:                                               ; preds = %72, %55
  %78 = load i32, ptr %20, align 4, !tbaa !9
  %79 = trunc i32 %78 to i16
  %80 = load ptr, ptr %10, align 8, !tbaa !4
  %81 = load i32, ptr %19, align 4, !tbaa !9
  %82 = sext i32 %81 to i64
  %83 = getelementptr inbounds i16, ptr %80, i64 %82
  store i16 %79, ptr %83, align 2, !tbaa !11
  store i32 0, ptr %22, align 4
  br label %84

84:                                               ; preds = %77, %76
  call void @llvm.lifetime.end.p0(i64 4, ptr %21) #5
  call void @llvm.lifetime.end.p0(i64 4, ptr %20) #5
  %85 = load i32, ptr %22, align 4
  switch i32 %85, label %91 [
    i32 0, label %86
  ]

86:                                               ; preds = %84
  br label %87

87:                                               ; preds = %86
  %88 = load i32, ptr %19, align 4, !tbaa !9
  %89 = add nsw i32 %88, 1
  store i32 %89, ptr %19, align 4, !tbaa !9
  br label %23, !llvm.loop !24

90:                                               ; preds = %23
  store i32 0, ptr %9, align 4
  store i32 1, ptr %22, align 4
  br label %91

91:                                               ; preds = %90, %84
  call void @llvm.lifetime.end.p0(i64 4, ptr %19) #5
  call void @llvm.lifetime.end.p0(i64 4, ptr %18) #5
  %92 = load i32, ptr %9, align 4
  ret i32 %92
}