; Function Attrs: nofree norecurse nosync nounwind memory(argmem: readwrite) uwtable
define range(i32 0, 2) i32 @ff_celp_lp_synthesis_filter(ptr noundef captures(none) %0, ptr noundef readonly captures(none) %1, ptr noundef readonly captures(none) %2, i32 noundef %3, i32 noundef %4, i32 noundef %5, i32 noundef %6, i32 noundef %7) local_unnamed_addr #0 {
  %9 = icmp sgt i32 %3, 0
  br i1 %9, label %.preheader.lr.ph, label %._crit_edge35

.preheader.lr.ph:                                 ; preds = %8
  %invariant.gep = getelementptr i8, ptr %1, i64 -2
  %.not31 = icmp slt i32 %4, 1
  %.not29 = icmp eq i32 %5, 0
  %wide.trip.count78 = zext nneg i32 %3 to i64
  br i1 %.not31, label %.preheader.lr.ph.split.us, label %.preheader.lr.ph.split

.preheader.lr.ph.split.us:                        ; preds = %.preheader.lr.ph
  %10 = ashr i32 %7, 12
  br i1 %.not29, label %.preheader.us.us, label %.preheader.us

.preheader.us.us:                                 ; preds = %.preheader.lr.ph.split.us, %.preheader.us.us
  %indvars.iv75 = phi i64 [ %indvars.iv.next76, %.preheader.us.us ], [ 0, %.preheader.lr.ph.split.us ]
  %11 = getelementptr inbounds nuw i16, ptr %2, i64 %indvars.iv75
  %12 = load i16, ptr %11, align 2, !tbaa !4
  %13 = sext i16 %12 to i32
  %14 = add nsw i32 %10, %13
  %15 = ashr i32 %14, %6
  %16 = tail call i32 @llvm.smax.i32(i32 %15, i32 -32768)
  %17 = tail call i32 @llvm.smin.i32(i32 %16, i32 32767)
  %.0.i.us.us = trunc nsw i32 %17 to i16
  %18 = getelementptr inbounds nuw i16, ptr %0, i64 %indvars.iv75
  store i16 %.0.i.us.us, ptr %18, align 2, !tbaa !4
  %indvars.iv.next76 = add nuw nsw i64 %indvars.iv75, 1
  %exitcond79.not = icmp eq i64 %indvars.iv.next76, %wide.trip.count78
  br i1 %exitcond79.not, label %._crit_edge35, label %.preheader.us.us, !llvm.loop !16

.preheader.us:                                    ; preds = %.preheader.lr.ph.split.us, %.critedge.us
  %indvars.iv70 = phi i64 [ %indvars.iv.next71, %.critedge.us ], [ 0, %.preheader.lr.ph.split.us ]
  %19 = getelementptr inbounds nuw i16, ptr %2, i64 %indvars.iv70
  %20 = load i16, ptr %19, align 2, !tbaa !4
  %21 = sext i16 %20 to i32
  %22 = add nsw i32 %10, %21
  %23 = ashr i32 %22, %6
  %24 = tail call i32 @llvm.smax.i32(i32 %23, i32 -32768)
  %25 = tail call i32 @llvm.smin.i32(i32 %24, i32 32767)
  %.not30.us = icmp eq i32 %23, %25
  br i1 %.not30.us, label %.critedge.us, label %._crit_edge35

.critedge.us:                                     ; preds = %.preheader.us
  %.0.i.us = trunc nsw i32 %23 to i16
  %26 = getelementptr inbounds nuw i16, ptr %0, i64 %indvars.iv70
  store i16 %.0.i.us, ptr %26, align 2, !tbaa !4
  %indvars.iv.next71 = add nuw nsw i64 %indvars.iv70, 1
  %exitcond74.not = icmp eq i64 %indvars.iv.next71, %wide.trip.count78
  br i1 %exitcond74.not, label %._crit_edge35, label %.preheader.us, !llvm.loop !16

.preheader.lr.ph.split:                           ; preds = %.preheader.lr.ph
  %27 = add nuw i32 %4, 1
  %wide.trip.count63 = zext i32 %27 to i64
  br i1 %.not29, label %.preheader.us40, label %.preheader

.preheader.us40:                                  ; preds = %.preheader.lr.ph.split, %._crit_edge.us
  %indvars.iv65 = phi i64 [ %indvars.iv.next66, %._crit_edge.us ], [ 0, %.preheader.lr.ph.split ]
  br label %28

28:                                               ; preds = %28, %.preheader.us40
  %indvars.iv60 = phi i64 [ %indvars.iv.next61, %28 ], [ 1, %.preheader.us40 ]
  %.02633.us = phi i32 [ %36, %28 ], [ %7, %.preheader.us40 ]
  %gep.us = getelementptr i16, ptr %invariant.gep, i64 %indvars.iv60
  %29 = load i16, ptr %gep.us, align 2, !tbaa !4
  %30 = sext i16 %29 to i32
  %31 = sub nsw i64 %indvars.iv65, %indvars.iv60
  %32 = getelementptr inbounds i16, ptr %0, i64 %31
  %33 = load i16, ptr %32, align 2, !tbaa !4
  %34 = sext i16 %33 to i32
  %35 = mul nsw i32 %34, %30
  %36 = sub i32 %.02633.us, %35
  %indvars.iv.next61 = add nuw nsw i64 %indvars.iv60, 1
  %exitcond64.not = icmp eq i64 %indvars.iv.next61, %wide.trip.count63
  br i1 %exitcond64.not, label %._crit_edge.us, label %28, !llvm.loop !17

._crit_edge.us:                                   ; preds = %28
  %37 = ashr i32 %36, 12
  %38 = getelementptr inbounds nuw i16, ptr %2, i64 %indvars.iv65
  %39 = load i16, ptr %38, align 2, !tbaa !4
  %40 = sext i16 %39 to i32
  %41 = add nsw i32 %37, %40
  %42 = ashr i32 %41, %6
  %43 = tail call i32 @llvm.smax.i32(i32 %42, i32 -32768)
  %44 = tail call i32 @llvm.smin.i32(i32 %43, i32 32767)
  %.0.i.us43 = trunc nsw i32 %44 to i16
  %45 = getelementptr inbounds nuw i16, ptr %0, i64 %indvars.iv65
  store i16 %.0.i.us43, ptr %45, align 2, !tbaa !4
  %indvars.iv.next66 = add nuw nsw i64 %indvars.iv65, 1
  %exitcond69.not = icmp eq i64 %indvars.iv.next66, %wide.trip.count78
  br i1 %exitcond69.not, label %._crit_edge35, label %.preheader.us40, !llvm.loop !16

.preheader:                                       ; preds = %.preheader.lr.ph.split, %.critedge
  %indvars.iv55 = phi i64 [ %indvars.iv.next56, %.critedge ], [ 0, %.preheader.lr.ph.split ]
  br label %46

46:                                               ; preds = %.preheader, %46
  %indvars.iv = phi i64 [ 1, %.preheader ], [ %indvars.iv.next, %46 ]
  %.02633 = phi i32 [ %7, %.preheader ], [ %54, %46 ]
  %gep = getelementptr i16, ptr %invariant.gep, i64 %indvars.iv
  %47 = load i16, ptr %gep, align 2, !tbaa !4
  %48 = sext i16 %47 to i32
  %49 = sub nsw i64 %indvars.iv55, %indvars.iv
  %50 = getelementptr inbounds i16, ptr %0, i64 %49
  %51 = load i16, ptr %50, align 2, !tbaa !4
  %52 = sext i16 %51 to i32
  %53 = mul nsw i32 %52, %48
  %54 = sub i32 %.02633, %53
  %indvars.iv.next = add nuw nsw i64 %indvars.iv, 1
  %exitcond.not = icmp eq i64 %indvars.iv.next, %wide.trip.count63
  br i1 %exitcond.not, label %._crit_edge, label %46, !llvm.loop !17

._crit_edge:                                      ; preds = %46
  %55 = ashr i32 %54, 12
  %56 = getelementptr inbounds nuw i16, ptr %2, i64 %indvars.iv55
  %57 = load i16, ptr %56, align 2, !tbaa !4
  %58 = sext i16 %57 to i32
  %59 = add nsw i32 %55, %58
  %60 = ashr i32 %59, %6
  %61 = tail call i32 @llvm.smax.i32(i32 %60, i32 -32768)
  %62 = tail call i32 @llvm.smin.i32(i32 %61, i32 32767)
  %.not30 = icmp eq i32 %60, %62
  br i1 %.not30, label %.critedge, label %._crit_edge35

.critedge:                                        ; preds = %._crit_edge
  %.0.i = trunc nsw i32 %60 to i16
  %63 = getelementptr inbounds nuw i16, ptr %0, i64 %indvars.iv55
  store i16 %.0.i, ptr %63, align 2, !tbaa !4
  %indvars.iv.next56 = add nuw nsw i64 %indvars.iv55, 1
  %exitcond59.not = icmp eq i64 %indvars.iv.next56, %wide.trip.count78
  br i1 %exitcond59.not, label %._crit_edge35, label %.preheader, !llvm.loop !16

._crit_edge35:                                    ; preds = %._crit_edge, %.critedge, %._crit_edge.us, %.preheader.us, %.critedge.us, %.preheader.us.us, %8
  %.2 = phi i32 [ 0, %8 ], [ 0, %.preheader.us.us ], [ 0, %.critedge.us ], [ 1, %.preheader.us ], [ 0, %._crit_edge.us ], [ 0, %.critedge ], [ 1, %._crit_edge ]
  ret i32 %.2
}